; Function Attrs: null_pointer_is_valid sspstrong uwtable
define hidden i32 @srvsvc_dissect_struct_NetSessInfo2(ptr noundef %0, i32 noundef %1, ptr noundef %2, ptr noundef %3, ptr noundef %4, ptr noundef %5, i32 noundef %6, i32 %7) local_unnamed_addr #0 {
  %9 = getelementptr inbounds nuw i8, ptr %4, i64 64
  %10 = load ptr, ptr %9, align 8
  %11 = getelementptr inbounds nuw i8, ptr %10, i64 96
  %12 = load i32, ptr %11, align 8
  %13 = and i32 %12, 1
  %.not = icmp eq i32 %13, 0
  %14 = getelementptr inbounds nuw i8, ptr %4, i64 25
  %15 = load i8, ptr %14, align 1, !range !6, !noundef !7
  %16 = trunc nuw i8 %15 to i1
  br i1 %.not, label %22, label %17

17:                                               ; preds = %8
  %18 = and i32 %1, 7
  %.not71 = icmp eq i32 %18, 0
  %or.cond = or i1 %.not71, %16
  br i1 %or.cond, label %27, label %19

19:                                               ; preds = %17
  %20 = and i32 %1, -8
  %21 = add i32 %20, 8
  br label %27

22:                                               ; preds = %8
  %23 = and i32 %1, 3
  %.not70 = icmp eq i32 %23, 0
  %or.cond75 = or i1 %.not70, %16
  br i1 %or.cond75, label %27, label %24

24:                                               ; preds = %22
  %25 = and i32 %1, -4
  %26 = add i32 %25, 4
  br label %27

27:                                               ; preds = %22, %24, %17, %19
  %.0 = phi i32 [ %1, %17 ], [ %21, %19 ], [ %1, %22 ], [ %26, %24 ]
  %.not72 = icmp eq ptr %3, null
  br i1 %.not72, label %32, label %28

28:                                               ; preds = %27
  %29 = tail call ptr @proto_tree_add_item(ptr noundef nonnull %3, i32 noundef %6, ptr noundef %0, i32 noundef %.0, i32 noundef -1, i32 noundef 0)
  %30 = load i32, ptr @ett_srvsvc_srvsvc_NetSessInfo2, align 4
  %31 = tail call ptr @proto_item_add_subtree(ptr noundef %29, i32 noundef %30)
  br label %32

32:                                               ; preds = %28, %27
  %.068 = phi ptr [ %29, %28 ], [ null, %27 ]
  %.067 = phi ptr [ %31, %28 ], [ null, %27 ]
  %33 = load i32, ptr @hf_srvsvc_srvsvc_NetSessInfo2_client, align 4
  %34 = tail call i32 @dissect_ndr_embedded_pointer(ptr noundef %0, i32 noundef %.0, ptr noundef %2, ptr noundef %.067, ptr noundef %4, ptr noundef %5, ptr noundef nonnull @srvsvc_dissect_element_NetSessInfo2_client_, i32 noundef 2, ptr noundef nonnull @.str.1127, i32 noundef %33)
  %35 = load i32, ptr @hf_srvsvc_srvsvc_NetSessInfo2_user, align 4
  %36 = tail call i32 @dissect_ndr_embedded_pointer(ptr noundef %0, i32 noundef %34, ptr noundef %2, ptr noundef %.067, ptr noundef %4, ptr noundef %5, ptr noundef nonnull @srvsvc_dissect_element_NetSessInfo2_user_, i32 noundef 2, ptr noundef nonnull @.str.1104, i32 noundef %35)
  %37 = load i32, ptr @hf_srvsvc_srvsvc_NetSessInfo2_num_open, align 4
  %38 = tail call i32 @PIDL_dissect_uint32(ptr noundef %0, i32 noundef %36, ptr noundef %2, ptr noundef %.067, ptr noundef %4, ptr noundef %5, i32 noundef %37, i32 noundef 0)
  %39 = load i32, ptr @hf_srvsvc_srvsvc_NetSessInfo2_time, align 4
  %40 = tail call i32 @PIDL_dissect_uint32(ptr noundef %0, i32 noundef %38, ptr noundef %2, ptr noundef %.067, ptr noundef %4, ptr noundef %5, i32 noundef %39, i32 noundef 0)
  %41 = load i32, ptr @hf_srvsvc_srvsvc_NetSessInfo2_idle_time, align 4
  %42 = tail call i32 @PIDL_dissect_uint32(ptr noundef %0, i32 noundef %40, ptr noundef %2, ptr noundef %.067, ptr noundef %4, ptr noundef %5, i32 noundef %41, i32 noundef 0)
  %43 = load i32, ptr @hf_srvsvc_srvsvc_NetSessInfo2_user_flags, align 4
  %44 = tail call i32 @PIDL_dissect_uint32(ptr noundef %0, i32 noundef %42, ptr noundef %2, ptr noundef %.067, ptr noundef %4, ptr noundef %5, i32 noundef %43, i32 noundef 0)
  %45 = load i32, ptr @hf_srvsvc_srvsvc_NetSessInfo2_client_type, align 4
  %46 = tail call i32 @dissect_ndr_embedded_pointer(ptr noundef %0, i32 noundef %44, ptr noundef %2, ptr noundef %.067, ptr noundef %4, ptr noundef %5, ptr noundef nonnull @srvsvc_dissect_element_NetSessInfo2_client_type_, i32 noundef 2, ptr noundef nonnull @.str.1130, i32 noundef %45)
  %47 = sub i32 %46, %.0
  tail call void @proto_item_set_len(ptr noundef %.068, i32 noundef %47)
  %48 = load ptr, ptr %9, align 8
  %49 = getelementptr inbounds nuw i8, ptr %48, i64 96
  %50 = load i32, ptr %49, align 8
  %51 = and i32 %50, 1
  %.not73 = icmp eq i32 %51, 0
  br i1 %.not73, label %60, label %52

52:                                               ; preds = %32
  %53 = getelementptr inbounds nuw i8, ptr %4, i64 25
  %54 = load i8, ptr %53, align 1, !range !6, !noundef !7
  %55 = trunc nuw i8 %54 to i1
  %56 = and i32 %46, 7
  %.not74 = icmp eq i32 %56, 0
  %or.cond76 = or i1 %.not74, %55
  br i1 %or.cond76, label %60, label %57

57:                                               ; preds = %52
  %58 = and i32 %46, -8
  %59 = add i32 %58, 8
  br label %60

60:                                               ; preds = %57, %52, %32
  %.1 = phi i32 [ %46, %52 ], [ %59, %57 ], [ %46, %32 ]
  ret i32 %.1
}